; ModuleID = '46/139.c'
source_filename = "46/139.c"
target datalayout = "e-m:e-p270:32:32-p271:32:32-p272:64:64-i64:64-f80:128-n8:16:32:64-S128"
target triple = "x86_64-pc-linux-gnu"

@.str = private unnamed_addr constant [5 x i8] c"%d%d\00", align 1
@.str.1 = private unnamed_addr constant [3 x i8] c"%d\00", align 1
@.str.2 = private unnamed_addr constant [4 x i8] c"%d\0A\00", align 1

; Function Attrs: noinline nounwind uwtable
define dso_local i32 @main() #0 {
  %1 = alloca i32, align 4
  %2 = alloca [100 x [100 x i32]], align 16
  %3 = alloca i32, align 4
  %4 = alloca i32, align 4
  %5 = alloca i32, align 4
  %6 = alloca i32, align 4
  %7 = alloca i32, align 4
  %8 = alloca i32, align 4
  store i32 0, i32* %1, align 4
  store i32 0, i32* %7, align 4
  store i32 0, i32* %8, align 4
  %9 = call i32 (i8*, ...) @__isoc99_scanf(i8* getelementptr inbounds ([5 x i8], [5 x i8]* @.str, i64 0, i64 0), i32* %3, i32* %4)
  store i32 0, i32* %5, align 4
  br label %10

10:                                               ; preds = %31, %0
  %11 = load i32, i32* %5, align 4
  %12 = load i32, i32* %3, align 4
  %13 = icmp slt i32 %11, %12
  br i1 %13, label %14, label %34

14:                                               ; preds = %10
  store i32 0, i32* %6, align 4
  br label %15

15:                                               ; preds = %27, %14
  %16 = load i32, i32* %6, align 4
  %17 = load i32, i32* %4, align 4
  %18 = icmp slt i32 %16, %17
  br i1 %18, label %19, label %30

19:                                               ; preds = %15
  %20 = load i32, i32* %5, align 4
  %21 = sext i32 %20 to i64
  %22 = getelementptr inbounds [100 x [100 x i32]], [100 x [100 x i32]]* %2, i64 0, i64 %21
  %23 = load i32, i32* %6, align 4
  %24 = sext i32 %23 to i64
  %25 = getelementptr inbounds [100 x i32], [100 x i32]* %22, i64 0, i64 %24
  %26 = call i32 (i8*, ...) @__isoc99_scanf(i8* getelementptr inbounds ([3 x i8], [3 x i8]* @.str.1, i64 0, i64 0), i32* %25)
  br label %27

27:                                               ; preds = %19
  %28 = load i32, i32* %6, align 4
  %29 = add nsw i32 %28, 1
  store i32 %29, i32* %6, align 4
  br label %15

30:                                               ; preds = %15
  br label %31

31:                                               ; preds = %30
  %32 = load i32, i32* %5, align 4
  %33 = add nsw i32 %32, 1
  store i32 %33, i32* %5, align 4
  br label %10

34:                                               ; preds = %10
  store i32 0, i32* %7, align 4
  br label %35

35:                                               ; preds = %164, %34
  %36 = load i32, i32* %7, align 4
  %37 = icmp sge i32 %36, 0
  br i1 %37, label %38, label %167

38:                                               ; preds = %35
  %39 = load i32, i32* %7, align 4
  store i32 %39, i32* %6, align 4
  br label %40

40:                                               ; preds = %57, %38
  %41 = load i32, i32* %6, align 4
  %42 = load i32, i32* %4, align 4
  %43 = load i32, i32* %7, align 4
  %44 = sub nsw i32 %42, %43
  %45 = icmp slt i32 %41, %44
  br i1 %45, label %46, label %60

46:                                               ; preds = %40
  %47 = load i32, i32* %7, align 4
  %48 = sext i32 %47 to i64
  %49 = getelementptr inbounds [100 x [100 x i32]], [100 x [100 x i32]]* %2, i64 0, i64 %48
  %50 = load i32, i32* %6, align 4
  %51 = sext i32 %50 to i64
  %52 = getelementptr inbounds [100 x i32], [100 x i32]* %49, i64 0, i64 %51
  %53 = load i32, i32* %52, align 4
  %54 = call i32 (i8*, ...) @printf(i8* getelementptr inbounds ([4 x i8], [4 x i8]* @.str.2, i64 0, i64 0), i32 %53)
  %55 = load i32, i32* %8, align 4
  %56 = add nsw i32 %55, 1
  store i32 %56, i32* %8, align 4
  br label %57

57:                                               ; preds = %46
  %58 = load i32, i32* %6, align 4
  %59 = add nsw i32 %58, 1
  store i32 %59, i32* %6, align 4
  br label %40

60:                                               ; preds = %40
  %61 = load i32, i32* %8, align 4
  %62 = load i32, i32* %3, align 4
  %63 = load i32, i32* %4, align 4
  %64 = mul nsw i32 %62, %63
  %65 = icmp eq i32 %61, %64
  br i1 %65, label %66, label %67

66:                                               ; preds = %60
  br label %167

67:                                               ; preds = %60
  %68 = load i32, i32* %7, align 4
  %69 = add nsw i32 %68, 1
  store i32 %69, i32* %5, align 4
  br label %70

70:                                               ; preds = %90, %67
  %71 = load i32, i32* %5, align 4
  %72 = load i32, i32* %3, align 4
  %73 = load i32, i32* %7, align 4
  %74 = sub nsw i32 %72, %73
  %75 = icmp slt i32 %71, %74
  br i1 %75, label %76, label %93

76:                                               ; preds = %70
  %77 = load i32, i32* %5, align 4
  %78 = sext i32 %77 to i64
  %79 = getelementptr inbounds [100 x [100 x i32]], [100 x [100 x i32]]* %2, i64 0, i64 %78
  %80 = load i32, i32* %4, align 4
  %81 = load i32, i32* %7, align 4
  %82 = sub nsw i32 %80, %81
  %83 = sub nsw i32 %82, 1
  %84 = sext i32 %83 to i64
  %85 = getelementptr inbounds [100 x i32], [100 x i32]* %79, i64 0, i64 %84
  %86 = load i32, i32* %85, align 4
  %87 = call i32 (i8*, ...) @printf(i8* getelementptr inbounds ([4 x i8], [4 x i8]* @.str.2, i64 0, i64 0), i32 %86)
  %88 = load i32, i32* %8, align 4
  %89 = add nsw i32 %88, 1
  store i32 %89, i32* %8, align 4
  br label %90

90:                                               ; preds = %76
  %91 = load i32, i32* %5, align 4
  %92 = add nsw i32 %91, 1
  store i32 %92, i32* %5, align 4
  br label %70

93:                                               ; preds = %70
  %94 = load i32, i32* %8, align 4
  %95 = load i32, i32* %3, align 4
  %96 = load i32, i32* %4, align 4
  %97 = mul nsw i32 %95, %96
  %98 = icmp eq i32 %94, %97
  br i1 %98, label %99, label %100

99:                                               ; preds = %93
  br label %167

100:                                              ; preds = %93
  %101 = load i32, i32* %4, align 4
  %102 = sub nsw i32 %101, 2
  %103 = load i32, i32* %7, align 4
  %104 = sub nsw i32 %102, %103
  store i32 %104, i32* %6, align 4
  br label %105

105:                                              ; preds = %123, %100
  %106 = load i32, i32* %6, align 4
  %107 = load i32, i32* %7, align 4
  %108 = icmp sge i32 %106, %107
  br i1 %108, label %109, label %126

109:                                              ; preds = %105
  %110 = load i32, i32* %3, align 4
  %111 = load i32, i32* %7, align 4
  %112 = sub nsw i32 %110, %111
  %113 = sub nsw i32 %112, 1
  %114 = sext i32 %113 to i64
  %115 = getelementptr inbounds [100 x [100 x i32]], [100 x [100 x i32]]* %2, i64 0, i64 %114
  %116 = load i32, i32* %6, align 4
  %117 = sext i32 %116 to i64
  %118 = getelementptr inbounds [100 x i32], [100 x i32]* %115, i64 0, i64 %117
  %119 = load i32, i32* %118, align 4
  %120 = call i32 (i8*, ...) @printf(i8* getelementptr inbounds ([4 x i8], [4 x i8]* @.str.2, i64 0, i64 0), i32 %119)
  %121 = load i32, i32* %8, align 4
  %122 = add nsw i32 %121, 1
  store i32 %122, i32* %8, align 4
  br label %123

123:                                              ; preds = %109
  %124 = load i32, i32* %6, align 4
  %125 = add nsw i32 %124, -1
  store i32 %125, i32* %6, align 4
  br label %105

126:                                              ; preds = %105
  %127 = load i32, i32* %8, align 4
  %128 = load i32, i32* %3, align 4
  %129 = load i32, i32* %4, align 4
  %130 = mul nsw i32 %128, %129
  %131 = icmp eq i32 %127, %130
  br i1 %131, label %132, label %133

132:                                              ; preds = %126
  br label %167

133:                                              ; preds = %126
  %134 = load i32, i32* %3, align 4
  %135 = sub nsw i32 %134, 2
  %136 = load i32, i32* %7, align 4
  %137 = sub nsw i32 %135, %136
  store i32 %137, i32* %5, align 4
  br label %138

138:                                              ; preds = %153, %133
  %139 = load i32, i32* %5, align 4
  %140 = load i32, i32* %7, align 4
  %141 = icmp sgt i32 %139, %140
  br i1 %141, label %142, label %156

142:                                              ; preds = %138
  %143 = load i32, i32* %5, align 4
  %144 = sext i32 %143 to i64
  %145 = getelementptr inbounds [100 x [100 x i32]], [100 x [100 x i32]]* %2, i64 0, i64 %144
  %146 = load i32, i32* %7, align 4
  %147 = sext i32 %146 to i64
  %148 = getelementptr inbounds [100 x i32], [100 x i32]* %145, i64 0, i64 %147
  %149 = load i32, i32* %148, align 4
  %150 = call i32 (i8*, ...) @printf(i8* getelementptr inbounds ([4 x i8], [4 x i8]* @.str.2, i64 0, i64 0), i32 %149)
  %151 = load i32, i32* %8, align 4
  %152 = add nsw i32 %151, 1
  store i32 %152, i32* %8, align 4
  br label %153

153:                                              ; preds = %142
  %154 = load i32, i32* %5, align 4
  %155 = add nsw i32 %154, -1
  store i32 %155, i32* %5, align 4
  br label %138

156:                                              ; preds = %138
  %157 = load i32, i32* %8, align 4
  %158 = load i32, i32* %3, align 4
  %159 = load i32, i32* %4, align 4
  %160 = mul nsw i32 %158, %159
  %161 = icmp eq i32 %157, %160
  br i1 %161, label %162, label %163

162:                                              ; preds = %156
  br label %167

163:                                              ; preds = %156
  br label %164

164:                                              ; preds = %163
  %165 = load i32, i32* %7, align 4
  %166 = add nsw i32 %165, 1
  store i32 %166, i32* %7, align 4
  br label %35

167:                                              ; preds = %162, %132, %99, %66, %35
  ret i32 0
}

declare dso_local i32 @__isoc99_scanf(i8*, ...) #1

declare dso_local i32 @printf(i8*, ...) #1


!llvm.module.flags = !{!0}
!llvm.ident = !{!1}

!0 = !{i32 1, !"wchar_size", i32 4}
!1 = !{!"clang version 10.0.0-4ubuntu1 "}
